; Function Attrs: nounwind uwtable
define internal noundef i32 @dom_write_output_smart_str(ptr noundef %0, ptr nocapture noundef readonly %1, i64 noundef %2) #0 {
  %4 = load ptr, ptr %0, align 8
  %.not = icmp eq ptr %4, null
  br i1 %.not, label %11, label %5

5:                                                ; preds = %3
  %6 = getelementptr inbounds i8, ptr %4, i64 16
  %7 = load i64, ptr %6, align 8
  %8 = add i64 %7, %2
  %9 = getelementptr inbounds i8, ptr %0, i64 8
  %10 = load i64, ptr %9, align 8
  %.not27 = icmp ult i64 %8, %10
  br i1 %.not27, label %12, label %11

11:                                               ; preds = %3, %5
  %.0 = phi i64 [ %2, %3 ], [ %8, %5 ]
  tail call void @smart_str_erealloc(ptr noundef nonnull %0, i64 noundef %.0) #11
  %.pre = load ptr, ptr %0, align 8
  %.phi.trans.insert = getelementptr inbounds i8, ptr %.pre, i64 16
  %.pre28 = load i64, ptr %.phi.trans.insert, align 8
  br label %12

12:                                               ; preds = %11, %5
  %13 = phi i64 [ %.pre28, %11 ], [ %7, %5 ]
  %14 = phi ptr [ %.pre, %11 ], [ %4, %5 ]
  %.1 = phi i64 [ %.0, %11 ], [ %8, %5 ]
  %15 = getelementptr inbounds i8, ptr %14, i64 24
  %16 = getelementptr inbounds i8, ptr %15, i64 %13
  tail call void @llvm.memcpy.p0.p0.i64(ptr nonnull align 1 %16, ptr align 1 %1, i64 %2, i1 false)
  %17 = load ptr, ptr %0, align 8
  %18 = getelementptr inbounds i8, ptr %17, i64 16
  store i64 %.1, ptr %18, align 8
  ret i32 0
}